target datalayout = "e-m:e-p270:32:32-p271:32:32-p272:64:64-i64:64-i128:128-f80:128-n8:16:32:64-S128"
target triple = "x86_64-pc-linux-gnu"

%struct._object = type { i64, ptr }
%"struct.nanobind::detail::type_data" = type { i32, i32, ptr, ptr, ptr, ptr, ptr, ptr, ptr, ptr, %union.anon, ptr, ptr }
%union.anon = type { %struct.anon }
%struct.anon = type { ptr, ptr }

@_ZN8nanobind6detail9internalsE = external hidden global ptr, align 8

; Function Attrs: mustprogress nounwind uwtable
define noundef zeroext i1 @_ZN8nanobind6detail18nb_type_isinstanceEP7_objectPKSt9type_info(ptr noundef %0, ptr noundef %1) #6 personality ptr @__gxx_personality_v0 {
  %3 = alloca i1, align 1
  %4 = alloca ptr, align 8
  %5 = alloca ptr, align 8
  %6 = alloca ptr, align 8
  %7 = alloca i32, align 4
  store ptr %0, ptr %4, align 8
  store ptr %1, ptr %5, align 8
  call void @llvm.lifetime.start.p0(i64 8, ptr %6) #20
  %8 = load ptr, ptr @_ZN8nanobind6detail9internalsE, align 8
  %9 = load ptr, ptr %5, align 8
  %10 = invoke noundef ptr @_ZN8nanobind6detail11nb_type_c2pEPNS0_12nb_internalsEPKSt9type_info(ptr noundef %8, ptr noundef %9)
          to label %11 unwind label %27

11:                                               ; preds = %2
  store ptr %10, ptr %6, align 8
  %12 = load ptr, ptr %6, align 8
  %13 = icmp ne ptr %12, null
  br i1 %13, label %14, label %24

14:                                               ; preds = %11
  %15 = load ptr, ptr %4, align 8
  %16 = getelementptr inbounds nuw %struct._object, ptr %15, i32 0, i32 1
  %17 = load ptr, ptr %16, align 8
  %18 = load ptr, ptr %6, align 8
  %19 = getelementptr inbounds nuw %"struct.nanobind::detail::type_data", ptr %18, i32 0, i32 4
  %20 = load ptr, ptr %19, align 8
  %21 = invoke i32 @PyType_IsSubtype(ptr noundef %17, ptr noundef %20)
          to label %22 unwind label %27

22:                                               ; preds = %14
  %23 = icmp ne i32 %21, 0
  store i1 %23, ptr %3, align 1
  store i32 1, ptr %7, align 4
  br label %25

24:                                               ; preds = %11
  store i1 false, ptr %3, align 1
  store i32 1, ptr %7, align 4
  br label %25

25:                                               ; preds = %24, %22
  call void @llvm.lifetime.end.p0(i64 8, ptr %6) #20
  %26 = load i1, ptr %3, align 1
  ret i1 %26

27:                                               ; preds = %14, %2
  %28 = landingpad { ptr, i32 }
          catch ptr null
  %29 = extractvalue { ptr, i32 } %28, 0
  call void @__clang_call_terminate(ptr %29) #22
  unreachable
}