; Function Attrs: mustprogress nounwind uwtable
define noundef zeroext i1 @_ZN8nanobind6detail18nb_type_isinstanceEP7_objectPKSt9type_info(ptr noundef readonly captures(none) %0, ptr noundef %1) local_unnamed_addr #5 personality ptr @__gxx_personality_v0 {
  %3 = load ptr, ptr @_ZN8nanobind6detail9internalsE, align 8
  %4 = invoke noundef ptr @_ZN8nanobind6detail11nb_type_c2pEPNS0_12nb_internalsEPKSt9type_info(ptr noundef %3, ptr noundef %1)
          to label %5 unwind label %15

5:                                                ; preds = %2
  %.not = icmp eq ptr %4, null
  br i1 %.not, label %14, label %6

6:                                                ; preds = %5
  %7 = getelementptr inbounds nuw i8, ptr %0, i64 8
  %8 = load ptr, ptr %7, align 8
  %9 = getelementptr inbounds nuw i8, ptr %4, i64 24
  %10 = load ptr, ptr %9, align 8
  %11 = invoke i32 @PyType_IsSubtype(ptr noundef %8, ptr noundef %10)
          to label %12 unwind label %15

12:                                               ; preds = %6
  %13 = icmp ne i32 %11, 0
  br label %14

14:                                               ; preds = %5, %12
  %.0 = phi i1 [ %13, %12 ], [ false, %5 ]
  ret i1 %.0

15:                                               ; preds = %6, %2
  %16 = landingpad { ptr, i32 }
          catch ptr null
  %17 = extractvalue { ptr, i32 } %16, 0
  tail call void @__clang_call_terminate(ptr %17) #30
  unreachable
}